; ModuleID = '54/299.c'
source_filename = "54/299.c"
target datalayout = "e-m:e-p270:32:32-p271:32:32-p272:64:64-i64:64-f80:128-n8:16:32:64-S128"
target triple = "x86_64-pc-linux-gnu"

@.str = private unnamed_addr constant [5 x i8] c"%d%d\00", align 1
@.str.1 = private unnamed_addr constant [3 x i8] c"%d\00", align 1
@.str.2 = private unnamed_addr constant [2 x i8] c"\0A\00", align 1

; Function Attrs: noinline nounwind uwtable
define dso_local i32 @main() #0 {
  %1 = alloca i32, align 4
  %2 = alloca i32, align 4
  %3 = alloca i32, align 4
  %4 = alloca i32, align 4
  %5 = alloca i32, align 4
  %6 = alloca i32, align 4
  store i32 0, i32* %1, align 4
  %7 = call i32 (i8*, ...) @__isoc99_scanf(i8* getelementptr inbounds ([5 x i8], [5 x i8]* @.str, i64 0, i64 0), i32* %2, i32* %3)
  %8 = load i32, i32* %2, align 4
  %9 = load i32, i32* %3, align 4
  %10 = add nsw i32 %8, %9
  store i32 %10, i32* %4, align 4
  br label %11

11:                                               ; preds = %51, %0
  %12 = load i32, i32* %4, align 4
  store i32 %12, i32* %5, align 4
  store i32 1, i32* %6, align 4
  br label %13

13:                                               ; preds = %47, %11
  %14 = load i32, i32* %6, align 4
  %15 = load i32, i32* %2, align 4
  %16 = icmp sle i32 %14, %15
  br i1 %16, label %17, label %50

17:                                               ; preds = %13
  %18 = load i32, i32* %5, align 4
  %19 = load i32, i32* %3, align 4
  %20 = sub nsw i32 %18, %19
  %21 = load i32, i32* %2, align 4
  %22 = srem i32 %20, %21
  %23 = icmp ne i32 %22, 0
  br i1 %23, label %29, label %24

24:                                               ; preds = %17
  %25 = load i32, i32* %5, align 4
  %26 = load i32, i32* %3, align 4
  %27 = sub nsw i32 %25, %26
  %28 = icmp sle i32 %27, 0
  br i1 %28, label %29, label %30

29:                                               ; preds = %24, %17
  br label %50

30:                                               ; preds = %24
  %31 = load i32, i32* %5, align 4
  %32 = load i32, i32* %3, align 4
  %33 = sub nsw i32 %31, %32
  %34 = load i32, i32* %2, align 4
  %35 = sdiv i32 %33, %34
  %36 = load i32, i32* %2, align 4
  %37 = sub nsw i32 %36, 1
  %38 = mul nsw i32 %35, %37
  store i32 %38, i32* %5, align 4
  br label %39

39:                                               ; preds = %30
  %40 = load i32, i32* %6, align 4
  %41 = load i32, i32* %2, align 4
  %42 = icmp eq i32 %40, %41
  br i1 %42, label %43, label %46

43:                                               ; preds = %39
  %44 = load i32, i32* %4, align 4
  %45 = call i32 (i8*, ...) @printf(i8* getelementptr inbounds ([3 x i8], [3 x i8]* @.str.1, i64 0, i64 0), i32 %44)
  br label %54

46:                                               ; preds = %39
  br label %47

47:                                               ; preds = %46
  %48 = load i32, i32* %6, align 4
  %49 = add nsw i32 %48, 1
  store i32 %49, i32* %6, align 4
  br label %13

50:                                               ; preds = %29, %13
  br label %51

51:                                               ; preds = %50
  %52 = load i32, i32* %4, align 4
  %53 = add nsw i32 %52, 1
  store i32 %53, i32* %4, align 4
  br label %11

54:                                               ; preds = %43
  %55 = call i32 (i8*, ...) @printf(i8* getelementptr inbounds ([2 x i8], [2 x i8]* @.str.2, i64 0, i64 0))
  %56 = load i32, i32* %1, align 4
  ret i32 %56
}

declare dso_local i32 @__isoc99_scanf(i8*, ...) #1

declare dso_local i32 @printf(i8*, ...) #1


!llvm.module.flags = !{!0}
!llvm.ident = !{!1}

!0 = !{i32 1, !"wchar_size", i32 4}
!1 = !{!"clang version 10.0.0-4ubuntu1 "}
