; ModuleID = 'source-C-CXX/53/299.c'
source_filename = "source-C-CXX/53/299.c"
target datalayout = "e-m:e-p270:32:32-p271:32:32-p272:64:64-i64:64-f80:128-n8:16:32:64-S128"
target triple = "x86_64-pc-linux-gnu"

@.str = private unnamed_addr constant [5 x i8] c"%d%d\00", align 1
@.str.1 = private unnamed_addr constant [3 x i8] c"%d\00", align 1

; Function Attrs: nofree nounwind sspstrong uwtable
define dso_local i32 @main() local_unnamed_addr #0 {
  %1 = alloca i32, align 4
  %2 = alloca i32, align 4
  %3 = bitcast i32* %1 to i8*
  call void @llvm.lifetime.start.p0i8(i64 4, i8* nonnull %3) #4
  %4 = bitcast i32* %2 to i8*
  call void @llvm.lifetime.start.p0i8(i64 4, i8* nonnull %4) #4
  %5 = call i32 (i8*, ...) @__isoc99_scanf(i8* getelementptr inbounds ([5 x i8], [5 x i8]* @.str, i64 0, i64 0), i32* nonnull %1, i32* nonnull %2)
  %6 = load i32, i32* %1, align 4, !tbaa !5
  %7 = load i32, i32* %2, align 4, !tbaa !5
  %8 = add nsw i32 %6, -1
  %9 = icmp slt i32 %6, 1
  br i1 %9, label %12, label %10

10:                                               ; preds = %0
  %11 = add nsw i32 %7, %6
  br label %13

12:                                               ; preds = %0, %12
  br label %12

13:                                               ; preds = %10, %36
  %14 = phi i32 [ %37, %36 ], [ %11, %10 ]
  %15 = sub nsw i32 %14, %7
  %16 = srem i32 %15, %6
  %17 = icmp ne i32 %16, 0
  %18 = icmp slt i32 %15, 1
  %19 = or i1 %18, %17
  br i1 %19, label %36, label %20

20:                                               ; preds = %13, %27
  %21 = phi i32 [ %31, %27 ], [ %15, %13 ]
  %22 = phi i32 [ %30, %27 ], [ 1, %13 ]
  %23 = icmp eq i32 %22, %6
  br i1 %23, label %24, label %27

24:                                               ; preds = %20
  %25 = call i32 (i8*, ...) @printf(i8* nonnull dereferenceable(1) getelementptr inbounds ([3 x i8], [3 x i8]* @.str.1, i64 0, i64 0), i32 %14)
  %26 = call i32 @putchar(i32 10)
  call void @llvm.lifetime.end.p0i8(i64 4, i8* nonnull %4) #4
  call void @llvm.lifetime.end.p0i8(i64 4, i8* nonnull %3) #4
  ret i32 0

27:                                               ; preds = %20
  %28 = sdiv i32 %21, %6
  %29 = mul nsw i32 %28, %8
  %30 = add nuw nsw i32 %22, 1
  %31 = sub nsw i32 %29, %7
  %32 = srem i32 %31, %6
  %33 = icmp ne i32 %32, 0
  %34 = icmp slt i32 %31, 1
  %35 = or i1 %34, %33
  br i1 %35, label %36, label %20, !llvm.loop !9

36:                                               ; preds = %27, %13
  %37 = add nsw i32 %14, 1
  br label %13
}

; Function Attrs: argmemonly mustprogress nofree nosync nounwind willreturn
declare void @llvm.lifetime.start.p0i8(i64 immarg, i8* nocapture) #1

; Function Attrs: nofree nounwind
declare noundef i32 @__isoc99_scanf(i8* nocapture noundef readonly, ...) local_unnamed_addr #2

; Function Attrs: nofree nounwind
declare noundef i32 @printf(i8* nocapture noundef readonly, ...) local_unnamed_addr #2

; Function Attrs: argmemonly mustprogress nofree nosync nounwind willreturn
declare void @llvm.lifetime.end.p0i8(i64 immarg, i8* nocapture) #1

; Function Attrs: nofree nounwind
declare noundef i32 @putchar(i32 noundef) local_unnamed_addr #3


!llvm.module.flags = !{!0, !1, !2, !3}
!llvm.ident = !{!4}

!0 = !{i32 1, !"wchar_size", i32 4}
!1 = !{i32 7, !"PIC Level", i32 2}
!2 = !{i32 7, !"PIE Level", i32 2}
!3 = !{i32 7, !"uwtable", i32 1}
!4 = !{!"clang version 13.0.0"}
!5 = !{!6, !6, i64 0}
!6 = !{!"int", !7, i64 0}
!7 = !{!"omnipotent char", !8, i64 0}
!8 = !{!"Simple C/C++ TBAA"}
!9 = distinct !{!9, !10}
!10 = !{!"llvm.loop.mustprogress"}
